; Function Attrs: nounwind uwtable
define hidden void @VP8MakeChroma8Preds(ptr nocapture noundef readonly %0) local_unnamed_addr #0 {
  %2 = load i32, ptr %0, align 8
  %.not = icmp eq i32 %2, 0
  br i1 %.not, label %6, label %3

3:                                                ; preds = %1
  %4 = getelementptr inbounds i8, ptr %0, i64 368
  %5 = load ptr, ptr %4, align 8
  br label %6

6:                                                ; preds = %1, %3
  %7 = phi ptr [ %5, %3 ], [ null, %1 ]
  %8 = getelementptr inbounds i8, ptr %0, i64 4
  %9 = load i32, ptr %8, align 4
  %.not7 = icmp eq i32 %9, 0
  br i1 %.not7, label %13, label %10

10:                                               ; preds = %6
  %11 = getelementptr inbounds i8, ptr %0, i64 392
  %12 = load ptr, ptr %11, align 8
  br label %13

13:                                               ; preds = %6, %10
  %14 = phi ptr [ %12, %10 ], [ null, %6 ]
  %15 = load ptr, ptr @VP8EncPredChroma8, align 8
  %16 = getelementptr inbounds i8, ptr %0, i64 32
  %17 = load ptr, ptr %16, align 8
  tail call void %15(ptr noundef %17, ptr noundef %7, ptr noundef %14) #11
  ret void
}